081109 203520 142 INFO dfs.DataNode$DataXceiver: Receiving block blk_7503483334202473044 src: /10.251.215.16:55695 dest: /10.251.215.16:50010
081109 203520 145 INFO dfs.DataNode$DataXceiver: Receiving block blk_7503483334202473044 src: /10.250.19.102:34232 dest: /10.250.19.102:50010
081109 203520 26 INFO dfs.FSNamesystem: BLOCK* NameSystem.allocateBlock: /mnt/hadoop/mapred/system/job_200811092030_0001/job.split. blk_7503483334202473044
081109 203521 144 INFO dfs.DataNode$DataXceiver: Receiving block blk_7503483334202473044 src: /10.251.71.16:51590 dest: /10.251.71.16:50010
081109 203521 145 INFO dfs.DataNode$PacketResponder: PacketResponder 1 for block blk_7503483334202473044 terminating
081109 203521 145 INFO dfs.DataNode$PacketResponder: Received block blk_7503483334202473044 of size 233217 from /10.251.215.16
081109 203521 146 INFO dfs.DataNode$PacketResponder: PacketResponder 0 for block blk_7503483334202473044 terminating
081109 203521 146 INFO dfs.DataNode$PacketResponder: Received block blk_7503483334202473044 of size 233217 from /10.251.71.16
081109 203521 148 INFO dfs.DataNode$PacketResponder: PacketResponder 2 for block blk_7503483334202473044 terminating
081109 203521 148 INFO dfs.DataNode$PacketResponder: Received block blk_7503483334202473044 of size 233217 from /10.250.19.102
081109 203521 27 INFO dfs.FSNamesystem: BLOCK* NameSystem.addStoredBlock: blockMap updated: 10.251.106.10:50010 is added to blk_7503483334202473044 size 233217
081109 203521 33 INFO dfs.FSNamesystem: BLOCK* NameSystem.addStoredBlock: blockMap updated: 10.251.215.16:50010 is added to blk_7503483334202473044 size 233217
081109 203521 35 INFO dfs.FSNamesystem: BLOCK* NameSystem.addStoredBlock: blockMap updated: 10.251.71.16:50010 is added to blk_7503483334202473044 size 233217
081109 203525 150 INFO dfs.DataNode$DataXceiver: 10.251.215.16:50010 Served block blk_7503483334202473044 to /10.250.19.102
081109 203530 149 INFO dfs.DataNode$DataXceiver: Receiving block blk_-8531310335568756456 src: /10.251.203.149:53912 dest: /10.251.203.149:50010
081109 203530 28 INFO dfs.FSNamesystem: BLOCK* NameSystem.allocateBlock: /user/root/rand/_temporary/_task_200811092030_0001_m_000007_0/part-00007. blk_-8531310335568756456
081109 203532 146 INFO dfs.DataNode$DataXceiver: Receiving block blk_-8531310335568756456 src: /10.251.106.10:36502 dest: /10.251.106.10:50010
081109 203532 151 INFO dfs.DataNode$DataXceiver: Receiving block blk_-8531310335568756456 src: /10.251.203.149:59042 dest: /10.251.203.149:50010
081109 203628 150 INFO dfs.DataNode$PacketResponder: PacketResponder 0 for block blk_-8531310335568756456 terminating
081109 203628 150 INFO dfs.DataNode$PacketResponder: Received block blk_-8531310335568756456 of size 67108864 from /10.251.106.10
081109 203628 152 INFO dfs.DataNode$PacketResponder: PacketResponder 2 for block blk_-8531310335568756456 terminating
081109 203628 152 INFO dfs.DataNode$PacketResponder: Received block blk_-8531310335568756456 of size 67108864 from /10.251.203.149
081109 203628 158 INFO dfs.DataNode$PacketResponder: PacketResponder 1 for block blk_-8531310335568756456 terminating
081109 203628 158 INFO dfs.DataNode$PacketResponder: Received block blk_-8531310335568756456 of size 67108864 from /10.251.203.149
081109 203628 27 INFO dfs.FSNamesystem: BLOCK* NameSystem.addStoredBlock: blockMap updated: 10.251.203.149:50010 is added to blk_-8531310335568756456 size 67108864
081109 203628 33 INFO dfs.FSNamesystem: BLOCK* NameSystem.addStoredBlock: blockMap updated: 10.250.7.146:50010 is added to blk_-8531310335568756456 size 67108864
081109 203628 35 INFO dfs.FSNamesystem: BLOCK* NameSystem.addStoredBlock: blockMap updated: 10.251.106.10:50010 is added to blk_-8531310335568756456 size 67108864
081109 204003 13 INFO dfs.DataBlockScanner: Verification succeeded for blk_7503483334202473044
081109 204249 13 INFO dfs.DataBlockScanner: Verification succeeded for blk_-8531310335568756456
081109 204725 13 INFO dfs.DataBlockScanner: Verification succeeded for blk_7503483334202473044
081109 205011 13 INFO dfs.DataBlockScanner: Verification succeeded for blk_-8531310335568756456
081109 213138 13 INFO dfs.DataBlockScanner: Verification succeeded for blk_-8531310335568756456
081109 213809 32 INFO dfs.FSNamesystem: BLOCK* NameSystem.delete: blk_7503483334202473044 is added to invalidSet of 10.251.106.10:50010
081109 213809 32 INFO dfs.FSNamesystem: BLOCK* NameSystem.delete: blk_7503483334202473044 is added to invalidSet of 10.251.215.16:50010
081109 213809 32 INFO dfs.FSNamesystem: BLOCK* NameSystem.delete: blk_7503483334202473044 is added to invalidSet of 10.251.71.16:50010
081109 213840 19 INFO dfs.FSDataset: Deleting block blk_7503483334202473044 file /mnt/hadoop/dfs/data/current/blk_7503483334202473044
081109 213840 19 INFO dfs.FSDataset: Deleting block blk_7503483334202473044 file /mnt/hadoop/dfs/data/current/blk_7503483334202473044
081109 213842 19 INFO dfs.FSDataset: Deleting block blk_7503483334202473044 file /mnt/hadoop/dfs/data/current/blk_7503483334202473044
081109 213852 2573 WARN dfs.DataNode$DataXceiver: 10.251.203.149:50010:Got exception while serving blk_-8531310335568756456 to /10.251.39.144:
081109 214126 2607 WARN dfs.DataNode$DataXceiver: 10.250.7.146:50010:Got exception while serving blk_-8531310335568756456 to /10.251.89.155:
081109 214127 2460 WARN dfs.DataNode$DataXceiver: 10.251.106.10:50010:Got exception while serving blk_-8531310335568756456 to /10.250.11.100:
081109 214127 2462 WARN dfs.DataNode$DataXceiver: 10.251.106.10:50010:Got exception while serving blk_-8531310335568756456 to /10.251.75.143:
081109 214129 2669 WARN dfs.DataNode$DataXceiver: 10.251.203.149:50010:Got exception while serving blk_-8531310335568756456 to /10.251.215.50:
081109 214130 2613 WARN dfs.DataNode$DataXceiver: 10.250.7.146:50010:Got exception while serving blk_-8531310335568756456 to /10.250.5.161:
081109 214131 2465 WARN dfs.DataNode$DataXceiver: 10.251.106.10:50010:Got exception while serving blk_-8531310335568756456 to /10.251.107.242:
081109 214131 2674 WARN dfs.DataNode$DataXceiver: 10.251.203.149:50010:Got exception while serving blk_-8531310335568756456 to /10.251.42.84:
081109 214131 2675 WARN dfs.DataNode$DataXceiver: 10.251.203.149:50010:Got exception while serving blk_-8531310335568756456 to /10.250.9.207:
081109 214134 2616 WARN dfs.DataNode$DataXceiver: 10.250.7.146:50010:Got exception while serving blk_-8531310335568756456 to /10.251.42.246:
081109 214134 2677 WARN dfs.DataNode$DataXceiver: 10.251.203.149:50010:Got exception while serving blk_-8531310335568756456 to /10.251.75.79:
081109 214136 2683 WARN dfs.DataNode$DataXceiver: 10.251.203.149:50010:Got exception while serving blk_-8531310335568756456 to /10.251.215.16:
081109 214141 2471 WARN dfs.DataNode$DataXceiver: 10.251.106.10:50010:Got exception while serving blk_-8531310335568756456 to /10.251.193.224:
081109 214143 2618 WARN dfs.DataNode$DataXceiver: 10.250.7.146:50010:Got exception while serving blk_-8531310335568756456 to /10.251.30.179:
081109 214148 2473 WARN dfs.DataNode$DataXceiver: 10.251.106.10:50010:Got exception while serving blk_-8531310335568756456 to /10.251.106.10:
081109 214158 2614 INFO dfs.DataNode$DataXceiver: 10.250.7.146:50010 Served block blk_-8531310335568756456 to /10.250.7.146
081110 103053 30 INFO dfs.FSNamesystem: BLOCK* NameSystem.delete: blk_-8531310335568756456 is added to invalidSet of 10.250.7.146:50010
081110 103053 30 INFO dfs.FSNamesystem: BLOCK* NameSystem.delete: blk_-8531310335568756456 is added to invalidSet of 10.251.106.10:50010
081110 103053 30 INFO dfs.FSNamesystem: BLOCK* NameSystem.delete: blk_-8531310335568756456 is added to invalidSet of 10.251.203.149:50010
081110 103307 19 INFO dfs.FSDataset: Deleting block blk_-8531310335568756456 file /mnt/hadoop/dfs/data/current/blk_-8531310335568756456
081110 103408 19 INFO dfs.FSDataset: Deleting block blk_-8531310335568756456 file /mnt/hadoop/dfs/data/current/blk_-8531310335568756456
081110 104628 27 INFO dfs.FSNamesystem: BLOCK* NameSystem.addStoredBlock: addStoredBlock request received for blk_-8531310335568756456 on 10.251.106.10:50010 size 67108864 But it does not belong to any file.
081110 104628 27 INFO dfs.FSNamesystem: BLOCK* NameSystem.addStoredBlock: blockMap updated: 10.251.106.10:50010 is added to blk_-8531310335568756456 size 67108864
081110 104717 19 INFO dfs.FSDataset: Deleting block blk_-8531310335568756456 file /mnt/hadoop/dfs/data/current/blk_-8531310335568756456
